target datalayout = "e-m:e-p270:32:32-p271:32:32-p272:64:64-i64:64-i128:128-f80:128-n8:16:32:64-S128"
target triple = "x86_64-pc-linux-gnu"

@.str.82 = private unnamed_addr constant [7 x i8] c"%s %s\0A\00", align 1
@.str.170 = private unnamed_addr constant [4 x i8] c"%s\0A\00", align 1
@.str.219 = private unnamed_addr constant [12 x i8] c"%s %d bits\0A\00", align 1

; Function Attrs: inlinehint nounwind uwtable
define internal void @showPeerEx(ptr noundef %0, i32 noundef %1) #2 {
  %3 = alloca ptr, align 8
  %4 = alloca i32, align 4
  %5 = alloca ptr, align 8
  %6 = alloca ptr, align 8
  %7 = alloca ptr, align 8
  %8 = alloca i32, align 4
  store ptr %0, ptr %3, align 8, !tbaa !12
  store i32 %1, ptr %4, align 4, !tbaa !8
  call void @llvm.lifetime.start.p0(i64 8, ptr %5) #13
  call void @llvm.lifetime.start.p0(i64 8, ptr %6) #13
  %9 = load i32, ptr %4, align 4, !tbaa !8
  %10 = sext i32 %9 to i64
  %11 = getelementptr inbounds [2 x [9 x ptr]], ptr @client_showpeer_msg, i64 0, i64 %10
  %12 = getelementptr inbounds [9 x ptr], ptr %11, i64 0, i64 0
  store ptr %12, ptr %6, align 8, !tbaa !29
  call void @llvm.lifetime.start.p0(i64 8, ptr %7) #13
  call void @llvm.lifetime.start.p0(i64 4, ptr %8) #13
  %13 = load ptr, ptr %6, align 8, !tbaa !29
  %14 = getelementptr inbounds ptr, ptr %13, i64 0
  %15 = load ptr, ptr %14, align 8, !tbaa !18
  %16 = load ptr, ptr %3, align 8, !tbaa !12
  %17 = call ptr @wolfSSL_get_version(ptr noundef %16)
  %18 = call i32 (ptr, ...) @printf(ptr noundef @.str.82, ptr noundef %15, ptr noundef %17)
  %19 = load ptr, ptr %3, align 8, !tbaa !12
  %20 = call ptr @wolfSSL_get_current_cipher(ptr noundef %19)
  store ptr %20, ptr %5, align 8, !tbaa !37
  %21 = load ptr, ptr %6, align 8, !tbaa !29
  %22 = getelementptr inbounds ptr, ptr %21, i64 1
  %23 = load ptr, ptr %22, align 8, !tbaa !18
  %24 = load ptr, ptr %5, align 8, !tbaa !37
  %25 = call ptr @wolfSSL_CIPHER_get_name(ptr noundef %24)
  %26 = call i32 (ptr, ...) @printf(ptr noundef @.str.82, ptr noundef %23, ptr noundef %25)
  %27 = load ptr, ptr %3, align 8, !tbaa !12
  %28 = call ptr @wolfSSL_get_curve_name(ptr noundef %27)
  store ptr %28, ptr %7, align 8, !tbaa !18
  %29 = icmp ne ptr %28, null
  br i1 %29, label %30, label %36

30:                                               ; preds = %2
  %31 = load ptr, ptr %6, align 8, !tbaa !29
  %32 = getelementptr inbounds ptr, ptr %31, i64 3
  %33 = load ptr, ptr %32, align 8, !tbaa !18
  %34 = load ptr, ptr %7, align 8, !tbaa !18
  %35 = call i32 (ptr, ...) @printf(ptr noundef @.str.82, ptr noundef %33, ptr noundef %34)
  br label %47

36:                                               ; preds = %2
  %37 = load ptr, ptr %3, align 8, !tbaa !12
  %38 = call i32 @wolfSSL_GetDhKey_Sz(ptr noundef %37)
  store i32 %38, ptr %8, align 4, !tbaa !8
  %39 = icmp sgt i32 %38, 0
  br i1 %39, label %40, label %46

40:                                               ; preds = %36
  %41 = load ptr, ptr %6, align 8, !tbaa !29
  %42 = getelementptr inbounds ptr, ptr %41, i64 4
  %43 = load ptr, ptr %42, align 8, !tbaa !18
  %44 = load i32, ptr %8, align 4, !tbaa !8
  %45 = call i32 (ptr, ...) @printf(ptr noundef @.str.219, ptr noundef %43, i32 noundef %44)
  br label %46

46:                                               ; preds = %40, %36
  br label %47

47:                                               ; preds = %46, %30
  %48 = load ptr, ptr %3, align 8, !tbaa !12
  %49 = call i32 @wolfSSL_session_reused(ptr noundef %48)
  %50 = icmp ne i32 %49, 0
  br i1 %50, label %51, label %56

51:                                               ; preds = %47
  %52 = load ptr, ptr %6, align 8, !tbaa !29
  %53 = getelementptr inbounds ptr, ptr %52, i64 5
  %54 = load ptr, ptr %53, align 8, !tbaa !18
  %55 = call i32 (ptr, ...) @printf(ptr noundef @.str.170, ptr noundef %54)
  br label %56

56:                                               ; preds = %51, %47
  call void @llvm.lifetime.end.p0(i64 4, ptr %8) #13
  call void @llvm.lifetime.end.p0(i64 8, ptr %7) #13
  call void @llvm.lifetime.end.p0(i64 8, ptr %6) #13
  call void @llvm.lifetime.end.p0(i64 8, ptr %5) #13
  ret void
}