; Function Attrs: inlinehint nounwind uwtable
define internal fastcc void @showPeerEx(ptr noundef nonnull %0, i32 noundef %1) unnamed_addr #9 {
  %3 = sext i32 %1 to i64
  %4 = getelementptr inbounds [2 x [9 x ptr]], ptr @client_showpeer_msg, i64 0, i64 %3
  %5 = load ptr, ptr %4, align 8, !tbaa !16
  %6 = tail call ptr @wolfSSL_get_version(ptr noundef nonnull %0) #20
  %7 = tail call i32 (ptr, ...) @printf(ptr noundef nonnull dereferenceable(1) @.str.82, ptr noundef %5, ptr noundef %6)
  %8 = tail call ptr @wolfSSL_get_current_cipher(ptr noundef nonnull %0) #20
  %9 = getelementptr inbounds nuw i8, ptr %4, i64 8
  %10 = load ptr, ptr %9, align 8, !tbaa !16
  %11 = tail call ptr @wolfSSL_CIPHER_get_name(ptr noundef %8) #20
  %12 = tail call i32 (ptr, ...) @printf(ptr noundef nonnull dereferenceable(1) @.str.82, ptr noundef %10, ptr noundef %11)
  %13 = tail call ptr @wolfSSL_get_curve_name(ptr noundef nonnull %0) #20
  %.not = icmp eq ptr %13, null
  br i1 %.not, label %18, label %14

14:                                               ; preds = %2
  %15 = getelementptr inbounds nuw i8, ptr %4, i64 24
  %16 = load ptr, ptr %15, align 8, !tbaa !16
  %17 = tail call i32 (ptr, ...) @printf(ptr noundef nonnull dereferenceable(1) @.str.82, ptr noundef %16, ptr noundef nonnull %13)
  br label %25

18:                                               ; preds = %2
  %19 = tail call i32 @wolfSSL_GetDhKey_Sz(ptr noundef nonnull %0) #20
  %20 = icmp sgt i32 %19, 0
  br i1 %20, label %21, label %25

21:                                               ; preds = %18
  %22 = getelementptr inbounds nuw i8, ptr %4, i64 32
  %23 = load ptr, ptr %22, align 8, !tbaa !16
  %24 = tail call i32 (ptr, ...) @printf(ptr noundef nonnull dereferenceable(1) @.str.219, ptr noundef %23, i32 noundef %19)
  br label %25

25:                                               ; preds = %18, %21, %14
  %26 = tail call i32 @wolfSSL_session_reused(ptr noundef nonnull %0) #20
  %.not14 = icmp eq i32 %26, 0
  br i1 %.not14, label %30, label %27

27:                                               ; preds = %25
  %28 = getelementptr inbounds nuw i8, ptr %4, i64 40
  %29 = load ptr, ptr %28, align 8, !tbaa !16
  %puts = tail call i32 @puts(ptr nonnull dereferenceable(1) %29)
  br label %30

30:                                               ; preds = %27, %25
  ret void
}